; Function Attrs: nounwind uwtable
define ptr @l___private_Lean_Data_PersistentArray_0__Lean_PersistentArray_foldlFromMAux___at_Lean_Meta_Grind_Arith_Cutsat_LeCnstr_erase___spec__2___boxed(ptr noundef %0, ptr noundef %1, ptr noundef %2, ptr noundef %3, ptr noundef %4) local_unnamed_addr #0 {
  %6 = getelementptr i8, ptr %2, i64 8
  %.val20 = load i64, ptr %6, align 8, !tbaa !13
  %7 = ptrtoint ptr %2 to i64
  %8 = and i64 %7, 1
  %.not = icmp eq i64 %8, 0
  br i1 %.not, label %9, label %lean_dec.exit13

9:                                                ; preds = %5
  %10 = load i32, ptr %2, align 4, !tbaa !8
  %11 = icmp sgt i32 %10, 1
  br i1 %11, label %12, label %14, !prof !11

12:                                               ; preds = %9
  %13 = add nsw i32 %10, -1
  store i32 %13, ptr %2, align 4, !tbaa !8
  br label %lean_dec.exit13

14:                                               ; preds = %9
  %.not.i = icmp eq i32 %10, 0
  br i1 %.not.i, label %lean_dec.exit13, label %15

15:                                               ; preds = %14
  tail call void @lean_dec_ref_cold(ptr noundef nonnull %2) #4
  br label %lean_dec.exit13

lean_dec.exit13:                                  ; preds = %15, %14, %12, %5
  %16 = getelementptr i8, ptr %3, i64 8
  %.val = load i64, ptr %16, align 8, !tbaa !13
  %17 = ptrtoint ptr %3 to i64
  %18 = and i64 %17, 1
  %.not21 = icmp eq i64 %18, 0
  br i1 %.not21, label %19, label %lean_dec.exit12

19:                                               ; preds = %lean_dec.exit13
  %20 = load i32, ptr %3, align 4, !tbaa !8
  %21 = icmp sgt i32 %20, 1
  br i1 %21, label %22, label %24, !prof !11

22:                                               ; preds = %19
  %23 = add nsw i32 %20, -1
  store i32 %23, ptr %3, align 4, !tbaa !8
  br label %lean_dec.exit12

24:                                               ; preds = %19
  %.not.i14 = icmp eq i32 %20, 0
  br i1 %.not.i14, label %lean_dec.exit12, label %25

25:                                               ; preds = %24
  tail call void @lean_dec_ref_cold(ptr noundef nonnull %3) #4
  br label %lean_dec.exit12

lean_dec.exit12:                                  ; preds = %25, %24, %22, %lean_dec.exit13
  %26 = tail call ptr @l___private_Lean_Data_PersistentArray_0__Lean_PersistentArray_foldlFromMAux___at_Lean_Meta_Grind_Arith_Cutsat_LeCnstr_erase___spec__2(ptr noundef %0, ptr noundef %1, i64 noundef %.val20, i64 noundef %.val, ptr noundef %4)
  %27 = ptrtoint ptr %1 to i64
  %28 = and i64 %27, 1
  %.not22 = icmp eq i64 %28, 0
  br i1 %.not22, label %29, label %lean_dec.exit11

29:                                               ; preds = %lean_dec.exit12
  %30 = load i32, ptr %1, align 4, !tbaa !8
  %31 = icmp sgt i32 %30, 1
  br i1 %31, label %32, label %34, !prof !11

32:                                               ; preds = %29
  %33 = add nsw i32 %30, -1
  store i32 %33, ptr %1, align 4, !tbaa !8
  br label %lean_dec.exit11

34:                                               ; preds = %29
  %.not.i16 = icmp eq i32 %30, 0
  br i1 %.not.i16, label %lean_dec.exit11, label %35

35:                                               ; preds = %34
  tail call void @lean_dec_ref_cold(ptr noundef nonnull %1) #4
  br label %lean_dec.exit11

lean_dec.exit11:                                  ; preds = %35, %34, %32, %lean_dec.exit12
  %36 = ptrtoint ptr %0 to i64
  %37 = and i64 %36, 1
  %.not23 = icmp eq i64 %37, 0
  br i1 %.not23, label %38, label %lean_dec.exit

38:                                               ; preds = %lean_dec.exit11
  %39 = load i32, ptr %0, align 4, !tbaa !8
  %40 = icmp sgt i32 %39, 1
  br i1 %40, label %41, label %43, !prof !11

41:                                               ; preds = %38
  %42 = add nsw i32 %39, -1
  store i32 %42, ptr %0, align 4, !tbaa !8
  br label %lean_dec.exit

43:                                               ; preds = %38
  %.not.i18 = icmp eq i32 %39, 0
  br i1 %.not.i18, label %lean_dec.exit, label %44

44:                                               ; preds = %43
  tail call void @lean_dec_ref_cold(ptr noundef nonnull %0) #4
  br label %lean_dec.exit

lean_dec.exit:                                    ; preds = %44, %43, %41, %lean_dec.exit11
  ret ptr %26
}